target datalayout = "e-m:e-p270:32:32-p271:32:32-p272:64:64-i64:64-i128:128-f80:128-n8:16:32:64-S128"
target triple = "x86_64-pc-linux-gnu"

%struct.RelationData = type { %struct.RelFileLocator, ptr, i32, i32, i8, i8, i8, i8, i8, i32, i32, i32, i32, ptr, ptr, i32, %struct.LockInfoData, ptr, ptr, ptr, ptr, ptr, i8, ptr, ptr, ptr, ptr, ptr, ptr, i32, ptr, i8, ptr, ptr, i32, i8, i32, ptr, i8, ptr, ptr, ptr, ptr, ptr, ptr, ptr, i32, ptr, ptr, ptr, ptr, ptr, ptr, ptr, ptr, ptr, ptr, ptr, ptr, ptr, ptr, ptr, ptr, ptr, ptr, ptr, i32, i8, ptr }
%struct.RelFileLocator = type { i32, i32, i32 }
%struct.LockInfoData = type { %struct.LockRelId }
%struct.LockRelId = type { i32, i32 }
%struct.FormData_pg_class = type { i32, %struct.nameData, i32, i32, i32, i32, i32, i32, i32, i32, float, i32, i32, i8, i8, i8, i8, i16, i16, i8, i8, i8, i8, i8, i8, i8, i8, i32, i32, i32 }
%struct.nameData = type { [64 x i8] }
%struct.IndexAmRoutine = type { i32, i16, i16, i16, i8, i8, i8, i8, i8, i8, i8, i8, i8, i8, i8, i8, i8, i8, i8, i8, i8, i32, ptr, ptr, ptr, ptr, ptr, ptr, ptr, ptr, ptr, ptr, ptr, ptr, ptr, ptr, ptr, ptr, ptr, ptr, ptr, ptr, ptr, ptr, ptr, ptr, ptr, ptr }

@.str = private unnamed_addr constant [53 x i8] c"cannot access index \22%s\22 while it is being reindexed\00", align 1
@.str.1 = private unnamed_addr constant [10 x i8] c"indexam.c\00", align 1
@__func__.index_insert_cleanup = private unnamed_addr constant [21 x i8] c"index_insert_cleanup\00", align 1

; Function Attrs: nounwind uwtable
define dso_local void @index_insert_cleanup(ptr noundef %0, ptr noundef %1) #0 {
  %3 = alloca ptr, align 8
  %4 = alloca ptr, align 8
  store ptr %0, ptr %3, align 8
  store ptr %1, ptr %4, align 8
  br label %5

5:                                                ; preds = %2
  %6 = load ptr, ptr %3, align 8
  %7 = getelementptr inbounds nuw %struct.RelationData, ptr %6, i32 0, i32 15
  %8 = load i32, ptr %7, align 8
  %9 = call zeroext i1 @ReindexIsProcessingIndex(i32 noundef %8)
  %10 = zext i1 %9 to i32
  %11 = icmp ne i32 %10, 0
  %12 = zext i1 %11 to i32
  %13 = sext i32 %12 to i64
  %14 = call i64 @llvm.expect.i64(i64 %13, i64 0)
  %15 = icmp ne i64 %14, 0
  br i1 %15, label %16, label %33

16:                                               ; preds = %5
  br label %17

17:                                               ; preds = %16
  br i1 true, label %18, label %20

18:                                               ; preds = %17
  %19 = call zeroext i1 @errstart_cold(i32 noundef 21, ptr noundef null) #8
  br i1 %19, label %22, label %31

20:                                               ; preds = %17
  %21 = call zeroext i1 @errstart(i32 noundef 21, ptr noundef null)
  br i1 %21, label %22, label %31

22:                                               ; preds = %20, %18
  %23 = call i32 @errcode(i32 noundef 1088)
  %24 = load ptr, ptr %3, align 8
  %25 = getelementptr inbounds nuw %struct.RelationData, ptr %24, i32 0, i32 13
  %26 = load ptr, ptr %25, align 8
  %27 = getelementptr inbounds nuw %struct.FormData_pg_class, ptr %26, i32 0, i32 1
  %28 = getelementptr inbounds nuw %struct.nameData, ptr %27, i32 0, i32 0
  %29 = getelementptr inbounds [64 x i8], ptr %28, i64 0, i64 0
  %30 = call i32 (ptr, ...) @errmsg(ptr noundef @.str, ptr noundef %29)
  call void @errfinish(ptr noundef @.str.1, i32 noundef 244, ptr noundef @__func__.index_insert_cleanup)
  br label %31

31:                                               ; preds = %22, %20, %18
  unreachable

32:                                               ; No predecessors!
  br label %33

33:                                               ; preds = %32, %5
  br label %34

34:                                               ; preds = %33
  %35 = load ptr, ptr %3, align 8
  %36 = getelementptr inbounds nuw %struct.RelationData, ptr %35, i32 0, i32 51
  %37 = load ptr, ptr %36, align 8
  %38 = getelementptr inbounds nuw %struct.IndexAmRoutine, ptr %37, i32 0, i32 25
  %39 = load ptr, ptr %38, align 8
  %40 = icmp ne ptr %39, null
  br i1 %40, label %41, label %49

41:                                               ; preds = %34
  %42 = load ptr, ptr %3, align 8
  %43 = getelementptr inbounds nuw %struct.RelationData, ptr %42, i32 0, i32 51
  %44 = load ptr, ptr %43, align 8
  %45 = getelementptr inbounds nuw %struct.IndexAmRoutine, ptr %44, i32 0, i32 25
  %46 = load ptr, ptr %45, align 8
  %47 = load ptr, ptr %3, align 8
  %48 = load ptr, ptr %4, align 8
  call void %46(ptr noundef %47, ptr noundef %48)
  br label %49

49:                                               ; preds = %41, %34
  ret void
}